target datalayout = "e-m:e-p270:32:32-p271:32:32-p272:64:64-i64:64-i128:128-f80:128-n8:16:32:64-S128"
target triple = "x86_64-pc-linux-gnu"

%class.BitMap = type { ptr, i64 }
%class.G1HeapRegionManager = type { ptr, ptr, %class.G1CommittedRegionMap, i32, [4 x i8], %class.G1HeapRegionTable, ptr, ptr, %class.G1FreeRegionList }
%class.G1CommittedRegionMap = type { ptr, %class.CHeapBitMap, %class.CHeapBitMap, i32, i32 }
%class.CHeapBitMap = type <{ %class.GrowableBitMap, i8, [7 x i8] }>
%class.GrowableBitMap = type { %class.BitMap }
%class.G1HeapRegionTable = type { %class.G1BiasedMappedArray.base, [4 x i8] }
%class.G1BiasedMappedArray.base = type { %class.G1BiasedMappedArrayBase.base }
%class.G1BiasedMappedArrayBase.base = type <{ ptr, ptr, ptr, i64, ptr, i64, i32 }>
%class.G1FreeRegionList = type { %class.G1HeapRegionSetBase.base, ptr, ptr, ptr, ptr }
%class.G1HeapRegionSetBase.base = type <{ ptr, ptr, i32, [4 x i8], ptr, i8 }>
%class.G1HeapRegionRange = type { i32, i32 }
%class.MutexLocker = type { %class.MutexLockerImpl }
%class.MutexLockerImpl = type { ptr }

@Uncommit_lock = external global ptr, align 8

; Function Attrs: mustprogress nounwind uwtable
define linkonce_odr hidden void @_ZN15MutexLockerImplD2Ev(ptr noundef nonnull align 8 dereferenceable(8) %0) unnamed_addr #1 comdat align 2 {
  %2 = alloca ptr, align 8
  store ptr %0, ptr %2, align 8
  %3 = load ptr, ptr %2, align 8
  %4 = getelementptr inbounds %class.MutexLockerImpl, ptr %3, i32 0, i32 0
  %5 = load ptr, ptr %4, align 8
  %6 = icmp ne ptr %5, null
  br i1 %6, label %7, label %10

7:                                                ; preds = %1
  %8 = getelementptr inbounds %class.MutexLockerImpl, ptr %3, i32 0, i32 0
  %9 = load ptr, ptr %8, align 8
  call void @_ZN5Mutex6unlockEv(ptr noundef nonnull align 8 dereferenceable(104) %9)
  br label %10

10:                                               ; preds = %7, %1
  ret void
}

; Function Attrs: mustprogress nounwind uwtable
define linkonce_odr hidden void @_ZN15MutexLockerImplC2EP5MutexNS0_18SafepointCheckFlagE(ptr noundef nonnull align 8 dereferenceable(8) %0, ptr noundef %1, i32 noundef %2) unnamed_addr #1 comdat align 2 {
  %4 = alloca ptr, align 8
  %5 = alloca ptr, align 8
  %6 = alloca i32, align 4
  %7 = alloca i8, align 1
  store ptr %0, ptr %4, align 8
  store ptr %1, ptr %5, align 8
  store i32 %2, ptr %6, align 4
  %8 = load ptr, ptr %4, align 8
  %9 = getelementptr inbounds %class.MutexLockerImpl, ptr %8, i32 0, i32 0
  %10 = load ptr, ptr %5, align 8
  store ptr %10, ptr %9, align 8
  %11 = load i32, ptr %6, align 4
  %12 = icmp eq i32 %11, 1
  %13 = zext i1 %12 to i8
  store i8 %13, ptr %7, align 1
  %14 = getelementptr inbounds %class.MutexLockerImpl, ptr %8, i32 0, i32 0
  %15 = load ptr, ptr %14, align 8
  %16 = icmp ne ptr %15, null
  br i1 %16, label %17, label %27

17:                                               ; preds = %3
  %18 = load i8, ptr %7, align 1
  %19 = trunc i8 %18 to i1
  br i1 %19, label %20, label %23

20:                                               ; preds = %17
  %21 = getelementptr inbounds %class.MutexLockerImpl, ptr %8, i32 0, i32 0
  %22 = load ptr, ptr %21, align 8
  call void @_ZN5Mutex28lock_without_safepoint_checkEv(ptr noundef nonnull align 8 dereferenceable(104) %22)
  br label %26

23:                                               ; preds = %17
  %24 = getelementptr inbounds %class.MutexLockerImpl, ptr %8, i32 0, i32 0
  %25 = load ptr, ptr %24, align 8
  call void @_ZN5Mutex4lockEv(ptr noundef nonnull align 8 dereferenceable(104) %25)
  br label %26

26:                                               ; preds = %23, %20
  br label %27

27:                                               ; preds = %26, %3
  ret void
}

; Function Attrs: mustprogress nounwind uwtable
define linkonce_odr hidden void @_ZN11MutexLockerD2Ev(ptr noundef nonnull align 8 dereferenceable(8) %0) unnamed_addr #1 comdat align 2 {
  %2 = alloca ptr, align 8
  store ptr %0, ptr %2, align 8
  %3 = load ptr, ptr %2, align 8
  call void @_ZN15MutexLockerImplD2Ev(ptr noundef nonnull align 8 dereferenceable(8) %3) #10
  ret void
}

; Function Attrs: mustprogress nounwind uwtable
define linkonce_odr hidden noundef i32 @_Z4MIN2IjET_S0_S0_(i32 noundef %0, i32 noundef %1) #1 comdat {
  %3 = alloca i32, align 4
  %4 = alloca i32, align 4
  store i32 %0, ptr %3, align 4
  store i32 %1, ptr %4, align 4
  %5 = load i32, ptr %3, align 4
  %6 = load i32, ptr %4, align 4
  %7 = icmp ult i32 %5, %6
  br i1 %7, label %8, label %10

8:                                                ; preds = %2
  %9 = load i32, ptr %3, align 4
  br label %12

10:                                               ; preds = %2
  %11 = load i32, ptr %4, align 4
  br label %12

12:                                               ; preds = %10, %8
  %13 = phi i32 [ %9, %8 ], [ %11, %10 ]
  ret i32 %13
}

; Function Attrs: mustprogress nounwind uwtable
define linkonce_odr hidden noundef i32 @_ZNK17G1HeapRegionRange5startEv(ptr noundef nonnull align 4 dereferenceable(8) %0) #1 comdat align 2 {
  %2 = alloca ptr, align 8
  store ptr %0, ptr %2, align 8
  %3 = load ptr, ptr %2, align 8
  %4 = getelementptr inbounds %class.G1HeapRegionRange, ptr %3, i32 0, i32 0
  %5 = load i32, ptr %4, align 4
  ret i32 %5
}

; Function Attrs: mustprogress nounwind uwtable
define linkonce_odr hidden noundef i32 @_ZNK17G1HeapRegionRange6lengthEv(ptr noundef nonnull align 4 dereferenceable(8) %0) #1 comdat align 2 {
  %2 = alloca ptr, align 8
  store ptr %0, ptr %2, align 8
  %3 = load ptr, ptr %2, align 8
  %4 = getelementptr inbounds %class.G1HeapRegionRange, ptr %3, i32 0, i32 1
  %5 = load i32, ptr %4, align 4
  %6 = getelementptr inbounds %class.G1HeapRegionRange, ptr %3, i32 0, i32 0
  %7 = load i32, ptr %6, align 4
  %8 = sub i32 %5, %7
  ret i32 %8
}

; Function Attrs: mustprogress nounwind uwtable
define linkonce_odr hidden void @_ZN11MutexLockerC2EP5MutexNS0_18SafepointCheckFlagE(ptr noundef nonnull align 8 dereferenceable(8) %0, ptr noundef %1, i32 noundef %2) unnamed_addr #1 comdat align 2 {
  %4 = alloca ptr, align 8
  %5 = alloca ptr, align 8
  %6 = alloca i32, align 4
  store ptr %0, ptr %4, align 8
  store ptr %1, ptr %5, align 8
  store i32 %2, ptr %6, align 4
  %7 = load ptr, ptr %4, align 8
  %8 = load ptr, ptr %5, align 8
  %9 = load i32, ptr %6, align 4
  call void @_ZN15MutexLockerImplC2EP5MutexNS0_18SafepointCheckFlagE(ptr noundef nonnull align 8 dereferenceable(8) %7, ptr noundef %8, i32 noundef %9)
  ret void
}

; Function Attrs: mustprogress nounwind uwtable
define hidden noundef i32 @_ZN19G1HeapRegionManager25uncommit_inactive_regionsEj(ptr noundef nonnull align 8 dereferenceable(232) %0, i32 noundef %1) #1 align 2 {
  %3 = alloca i32, align 4
  %4 = alloca ptr, align 8
  %5 = alloca i32, align 4
  %6 = alloca i32, align 4
  %7 = alloca i32, align 4
  %8 = alloca %class.MutexLocker, align 8
  %9 = alloca %class.G1HeapRegionRange, align 4
  %10 = alloca i32, align 4
  %11 = alloca i32, align 4
  %12 = alloca i32, align 4
  store ptr %0, ptr %4, align 8
  store i32 %1, ptr %5, align 4
  %13 = load ptr, ptr %4, align 8
  store i32 0, ptr %6, align 4
  store i32 0, ptr %7, align 4
  br label %14

14:                                               ; preds = %38, %2
  %15 = load ptr, ptr @Uncommit_lock, align 8
  call void @_ZN11MutexLockerC2EP5MutexNS0_18SafepointCheckFlagE(ptr noundef nonnull align 8 dereferenceable(8) %8, ptr noundef %15, i32 noundef 1)
  %16 = getelementptr inbounds %class.G1HeapRegionManager, ptr %13, i32 0, i32 2
  %17 = load i32, ptr %7, align 4
  %18 = call i64 @_ZNK20G1CommittedRegionMap19next_inactive_rangeEj(ptr noundef nonnull align 8 dereferenceable(64) %16, i32 noundef %17)
  store i64 %18, ptr %9, align 4
  %19 = call noundef i32 @_ZNK17G1HeapRegionRange6lengthEv(ptr noundef nonnull align 4 dereferenceable(8) %9)
  %20 = icmp eq i32 %19, 0
  br i1 %20, label %21, label %23

21:                                               ; preds = %14
  %22 = load i32, ptr %6, align 4
  store i32 %22, ptr %3, align 4
  store i32 1, ptr %10, align 4
  br label %35

23:                                               ; preds = %14
  %24 = call noundef i32 @_ZNK17G1HeapRegionRange5startEv(ptr noundef nonnull align 4 dereferenceable(8) %9)
  store i32 %24, ptr %11, align 4
  %25 = call noundef i32 @_ZNK17G1HeapRegionRange6lengthEv(ptr noundef nonnull align 4 dereferenceable(8) %9)
  %26 = load i32, ptr %5, align 4
  %27 = load i32, ptr %6, align 4
  %28 = sub i32 %26, %27
  %29 = call noundef i32 @_Z4MIN2IjET_S0_S0_(i32 noundef %25, i32 noundef %28)
  store i32 %29, ptr %12, align 4
  %30 = load i32, ptr %12, align 4
  %31 = load i32, ptr %6, align 4
  %32 = add i32 %31, %30
  store i32 %32, ptr %6, align 4
  %33 = load i32, ptr %11, align 4
  %34 = load i32, ptr %12, align 4
  call void @_ZN19G1HeapRegionManager16uncommit_regionsEjj(ptr noundef nonnull align 8 dereferenceable(232) %13, i32 noundef %33, i32 noundef %34)
  store i32 0, ptr %10, align 4
  br label %35

35:                                               ; preds = %23, %21
  call void @_ZN11MutexLockerD2Ev(ptr noundef nonnull align 8 dereferenceable(8) %8) #10
  %36 = load i32, ptr %10, align 4
  switch i32 %36, label %46 [
    i32 0, label %37
    i32 1, label %44
  ]

37:                                               ; preds = %35
  br label %38

38:                                               ; preds = %37
  %39 = load i32, ptr %6, align 4
  %40 = load i32, ptr %5, align 4
  %41 = icmp ult i32 %39, %40
  br i1 %41, label %14, label %42, !llvm.loop !15

42:                                               ; preds = %38
  %43 = load i32, ptr %6, align 4
  store i32 %43, ptr %3, align 4
  br label %44

44:                                               ; preds = %42, %35
  %45 = load i32, ptr %3, align 4
  ret i32 %45

46:                                               ; preds = %35
  unreachable
}