; Function Attrs: mustprogress nounwind uwtable
define hidden noundef i32 @_ZN19G1HeapRegionManager25uncommit_inactive_regionsEj(ptr noundef nonnull align 8 dereferenceable(232) %0, i32 noundef %1) local_unnamed_addr #0 align 2 {
  %3 = getelementptr inbounds i8, ptr %0, i64 16
  br label %4

4:                                                ; preds = %15, %2
  %.013 = phi i32 [ 0, %2 ], [ %.114, %15 ]
  %.0 = phi i32 [ undef, %2 ], [ %.1, %15 ]
  %5 = load ptr, ptr @Uncommit_lock, align 8
  %.not.i.i = icmp eq ptr %5, null
  br i1 %.not.i.i, label %_ZN11MutexLockerC2EP5MutexNS0_18SafepointCheckFlagE.exit, label %6

6:                                                ; preds = %4
  tail call void @_ZN5Mutex28lock_without_safepoint_checkEv(ptr noundef nonnull align 8 dereferenceable(104) %5) #16
  br label %_ZN11MutexLockerC2EP5MutexNS0_18SafepointCheckFlagE.exit

_ZN11MutexLockerC2EP5MutexNS0_18SafepointCheckFlagE.exit: ; preds = %4, %6
  %7 = tail call i64 @_ZNK20G1CommittedRegionMap19next_inactive_rangeEj(ptr noundef nonnull align 8 dereferenceable(64) %3, i32 noundef 0) #16
  %.sroa.0.0.extract.trunc = trunc i64 %7 to i32
  %.sroa.4.0.extract.shift = lshr i64 %7, 32
  %.sroa.4.0.extract.trunc = trunc nuw i64 %.sroa.4.0.extract.shift to i32
  %.not = icmp eq i32 %.sroa.4.0.extract.trunc, %.sroa.0.0.extract.trunc
  br i1 %.not, label %13, label %8

8:                                                ; preds = %_ZN11MutexLockerC2EP5MutexNS0_18SafepointCheckFlagE.exit
  %9 = sub i32 %.sroa.4.0.extract.trunc, %.sroa.0.0.extract.trunc
  %10 = sub i32 %1, %.013
  %11 = tail call noundef i32 @llvm.umin.i32(i32 %9, i32 %10)
  %12 = add i32 %11, %.013
  tail call void @_ZN19G1HeapRegionManager16uncommit_regionsEjj(ptr noundef nonnull align 8 dereferenceable(232) %0, i32 noundef %.sroa.0.0.extract.trunc, i32 noundef %11)
  br label %13

13:                                               ; preds = %_ZN11MutexLockerC2EP5MutexNS0_18SafepointCheckFlagE.exit, %8
  %.114 = phi i32 [ %12, %8 ], [ %.013, %_ZN11MutexLockerC2EP5MutexNS0_18SafepointCheckFlagE.exit ]
  %.1 = phi i32 [ %.0, %8 ], [ %.013, %_ZN11MutexLockerC2EP5MutexNS0_18SafepointCheckFlagE.exit ]
  br i1 %.not.i.i, label %_ZN11MutexLockerD2Ev.exit, label %14

14:                                               ; preds = %13
  tail call void @_ZN5Mutex6unlockEv(ptr noundef nonnull align 8 dereferenceable(104) %5) #16
  br label %_ZN11MutexLockerD2Ev.exit

_ZN11MutexLockerD2Ev.exit:                        ; preds = %13, %14
  br i1 %.not, label %17, label %15

15:                                               ; preds = %_ZN11MutexLockerD2Ev.exit
  %16 = icmp ult i32 %.114, %1
  br i1 %16, label %4, label %17, !llvm.loop !20

17:                                               ; preds = %15, %_ZN11MutexLockerD2Ev.exit
  %.2 = phi i32 [ %.1, %_ZN11MutexLockerD2Ev.exit ], [ %.114, %15 ]
  ret i32 %.2
}